; Function Attrs: nounwind uwtable
define ptr @lv_fragment_manager_find_by_container(ptr noundef %0, ptr noundef readnone %1) local_unnamed_addr #0 {
  %.not = icmp eq ptr %0, null
  br i1 %.not, label %.preheader, label %3

.preheader:                                       ; preds = %2, %.preheader
  br label %.preheader

3:                                                ; preds = %2
  %4 = getelementptr inbounds nuw i8, ptr %0, i64 8
  %5 = tail call ptr @lv_ll_get_head(ptr noundef nonnull %4) #3
  %.not1113 = icmp eq ptr %5, null
  br i1 %.not1113, label %.loopexit, label %.lr.ph

.lr.ph:                                           ; preds = %3, %13
  %.014 = phi ptr [ %14, %13 ], [ %5, %3 ]
  %6 = getelementptr inbounds nuw i8, ptr %.014, i64 16
  %7 = load ptr, ptr %6, align 8, !tbaa !26
  %8 = load ptr, ptr %7, align 8, !tbaa !27
  %9 = icmp eq ptr %8, %1
  br i1 %9, label %10, label %13

10:                                               ; preds = %.lr.ph
  %11 = getelementptr inbounds nuw i8, ptr %.014, i64 24
  %12 = load ptr, ptr %11, align 8, !tbaa !10
  br label %.loopexit

13:                                               ; preds = %.lr.ph
  %14 = tail call ptr @lv_ll_get_next(ptr noundef nonnull %4, ptr noundef nonnull %.014) #3
  %.not11 = icmp eq ptr %14, null
  br i1 %.not11, label %.loopexit, label %.lr.ph, !llvm.loop !35

.loopexit:                                        ; preds = %13, %3, %10
  %.09 = phi ptr [ %12, %10 ], [ null, %3 ], [ null, %13 ]
  ret ptr %.09
}